; Function Attrs: mustprogress nounwind uwtable
define hidden noundef ptr @_ZN9CodeCache9find_blobEPv(ptr noundef %0) local_unnamed_addr #1 align 2 {
  %2 = load ptr, ptr @_ZN9CodeCache6_heapsE, align 8
  %.not = icmp eq ptr %2, null
  br i1 %.not, label %_ZN9CodeCache24get_code_heap_containingEPv.exit.thread, label %3

3:                                                ; preds = %1
  %4 = load i32, ptr %2, align 4
  %.not9.i = icmp eq i32 %4, 0
  br i1 %.not9.i, label %_ZN9CodeCache24get_code_heap_containingEPv.exit.thread, label %.lr.ph.i

.lr.ph.i:                                         ; preds = %3
  %5 = getelementptr inbounds i8, ptr %2, i64 8
  %6 = load ptr, ptr %5, align 8
  %7 = zext i32 %4 to i64
  br label %9

8:                                                ; preds = %9
  %indvars.iv.next.i = add nuw nsw i64 %indvars.iv.i, 1
  %.not.i = icmp eq i64 %indvars.iv.next.i, %7
  br i1 %.not.i, label %_ZN9CodeCache24get_code_heap_containingEPv.exit.thread, label %9, !llvm.loop !21

9:                                                ; preds = %8, %.lr.ph.i
  %indvars.iv.i = phi i64 [ 0, %.lr.ph.i ], [ %indvars.iv.next.i, %8 ]
  %10 = getelementptr inbounds ptr, ptr %6, i64 %indvars.iv.i
  %11 = load ptr, ptr %10, align 8
  %12 = getelementptr inbounds i8, ptr %11, i64 16
  %13 = load ptr, ptr %12, align 8
  %.not.i.i = icmp ule ptr %13, %0
  %14 = getelementptr inbounds i8, ptr %11, i64 24
  %15 = load ptr, ptr %14, align 8
  %16 = icmp ugt ptr %15, %0
  %17 = select i1 %.not.i.i, i1 %16, i1 false
  br i1 %17, label %_ZN9CodeCache24get_code_heap_containingEPv.exit, label %8

_ZN9CodeCache24get_code_heap_containingEPv.exit:  ; preds = %9
  %18 = tail call noundef ptr @_ZNK8CodeHeap9find_blobEPv(ptr noundef nonnull align 8 dereferenceable(336) %11, ptr noundef %0) #20
  br label %_ZN9CodeCache24get_code_heap_containingEPv.exit.thread

_ZN9CodeCache24get_code_heap_containingEPv.exit.thread: ; preds = %8, %3, %1, %_ZN9CodeCache24get_code_heap_containingEPv.exit
  %.0 = phi ptr [ %18, %_ZN9CodeCache24get_code_heap_containingEPv.exit ], [ null, %1 ], [ null, %3 ], [ null, %8 ]
  ret ptr %.0
}